; Function Attrs: mustprogress uwtable
define dso_local noundef nonnull ptr @_ZNK8cmTarget25GetSuffixVariableInternalEN12cmStateEnums12ArtifactTypeE(ptr noundef nonnull readonly align 8 captures(none) dereferenceable(8) %0, i32 noundef %1) local_unnamed_addr #5 align 2 {
  %3 = load ptr, ptr %0, align 8, !tbaa !22
  %4 = load i32, ptr %3, align 8, !tbaa !24
  switch i32 %4, label %24 [
    i32 1, label %25
    i32 2, label %5
    i32 3, label %14
    i32 0, label %15
  ]

5:                                                ; preds = %2
  switch i32 %1, label %24 [
    i32 0, label %6
    i32 1, label %9
  ]

6:                                                ; preds = %5
  %7 = tail call noundef zeroext i1 @_ZNK8cmTarget26IsArchivedAIXSharedLibraryEv(ptr noundef nonnull align 8 dereferenceable(8) %0)
  %8 = select i1 %7, ptr @.str.362, ptr @.str.363
  br label %25

9:                                                ; preds = %5
  %10 = getelementptr inbounds nuw i8, ptr %3, i64 252
  %11 = load i8, ptr %10, align 4, !tbaa !121, !range !122, !noundef !123
  %12 = trunc nuw i8 %11 to i1
  %13 = select i1 %12, ptr @.str.364, ptr @.str.239
  br label %25

14:                                               ; preds = %2
  %switch.selectcmp = icmp eq i32 %1, 1
  %switch.select = select i1 %switch.selectcmp, ptr @.str.239, ptr @.str
  %switch.selectcmp4 = icmp eq i32 %1, 0
  %switch.select5 = select i1 %switch.selectcmp4, ptr @.str.365, ptr %switch.select
  br label %25

15:                                               ; preds = %2
  switch i32 %1, label %24 [
    i32 0, label %16
    i32 1, label %19
  ]

16:                                               ; preds = %15
  %17 = tail call noundef zeroext i1 @_ZNK8cmTarget22IsAndroidGuiExecutableEv(ptr noundef nonnull align 8 dereferenceable(8) %0)
  %18 = select i1 %17, ptr @.str.363, ptr @.str.366
  br label %25

19:                                               ; preds = %15
  %20 = getelementptr inbounds nuw i8, ptr %3, i64 251
  %21 = load i8, ptr %20, align 1, !tbaa !223, !range !122, !noundef !123
  %22 = trunc nuw i8 %21 to i1
  %23 = select i1 %22, ptr @.str.367, ptr @.str.239
  br label %25

24:                                               ; preds = %2, %15, %5
  br label %25

25:                                               ; preds = %14, %2, %24, %19, %16, %9, %6
  %.0 = phi ptr [ @.str, %24 ], [ %23, %19 ], [ %18, %16 ], [ %13, %9 ], [ %8, %6 ], [ @.str.361, %2 ], [ %switch.select5, %14 ]
  ret ptr %.0
}